(dp1
S'Brehms Lane Elementary'
p2
(lp3
(S'3'
S'math'
p4
F51
tp5
a(S'3'
S'reading'
p6
F62.700000000000003
tp7
a(S'4'
g4
F81.299999999999997
tp8
a(S'4'
g6
F85.400000000000006
tp9
a(S'5'
g4
F57.100000000000001
tp10
a(S'5'
g6
F60.200000000000003
tp11
a(S'5'
S'science'
p12
F22.899999999999999
tp13
asS'Coldstream Park Elementary'
p14
(lp15
(S'3'
g4
F60
tp16
a(S'3'
g6
F71.099999999999994
tp17
a(S'4'
g4
F97.700000000000003
tp18
a(S'4'
g6
F88.400000000000006
tp19
a(S'5'
g4
F81.400000000000006
tp20
a(S'5'
g6
F88.400000000000006
tp21
a(S'5'
g12
F48.799999999999997
tp22
asS'Thomas Johnson Elementary'
p23
(lp24
(S'3'
g4
F96.599999999999994
tp25
a(S'3'
g6
F93.099999999999994
tp26
a(S'4'
g4
F97.200000000000003
tp27
a(S'4'
g6
F94.099999999999994
tp28
a(S'5'
g4
F72.400000000000006
tp29
a(S'5'
g6
F82.799999999999997
tp30
a(S'5'
g12
F48.299999999999997
tp31
a(S'6'
g4
F85.200000000000003
tp32
a(S'6'
g6
F90.700000000000003
tp33
asS'Harford Heights Intermediate'
p34
(lp35
(S'3'
g4
F64.200000000000003
tp36
a(S'3'
g6
F57.5
tp37
a(S'4'
g4
F60.600000000000001
tp38
a(S'4'
g6
F71.599999999999994
tp39
a(S'5'
g4
F60.5
tp40
a(S'5'
g6
F78.900000000000006
tp41
a(S'5'
g12
F30.699999999999999
tp42
asS'Baltimore International Academy'
p43
(lp44
(S'3'
g4
F66.700000000000003
tp45
a(S'3'
g6
F57.100000000000001
tp46
a(S'4'
g4
F73.900000000000006
tp47
a(S'4'
g6
F78.299999999999997
tp48
a(S'5'
g4
F73.299999999999997
tp49
a(S'5'
g6
F73.299999999999997
tp50
a(S'5'
g12
F40
tp51
asS'Charles Carroll Barrister Elementary'
p52
(lp53
(S'3'
g4
F53.5
tp54
a(S'3'
g6
F55.799999999999997
tp55
a(S'4'
g4
F85.700000000000003
tp56
a(S'4'
g6
F66.700000000000003
tp57
a(S'5'
g4
F83.799999999999997
tp58
a(S'5'
g6
F83.799999999999997
tp59
a(S'5'
g12
F52.799999999999997
tp60
asS'Maree Garnett Farring Elementary'
p61
(lp62
(S'3'
g4
F76.5
tp63
a(S'3'
g6
F68.599999999999994
tp64
a(S'4'
g4
F85.700000000000003
tp65
a(S'4'
g6
F80
tp66
a(S'5'
g4
F88.599999999999994
tp67
a(S'5'
g6
F75
tp68
a(S'5'
g12
F47.700000000000003
tp69
asS'George Washington Elementary'
p70
(lp71
(S'3'
g4
F90
tp72
a(S'3'
g6
F96.700000000000003
tp73
a(S'4'
g4
F100
tp74
a(S'4'
g6
F100
tp75
a(S'5'
g4
F94.099999999999994
tp76
a(S'5'
g6
F97.099999999999994
tp77
a(S'5'
g12
F40
tp78
asS'James Mosher Elementary'
p79
(lp80
(S'3'
g4
F75.599999999999994
tp81
a(S'3'
g6
F78
tp82
a(S'4'
g4
F97.599999999999994
tp83
a(S'4'
g6
F95.099999999999994
tp84
a(S'5'
g4
F92.900000000000006
tp85
a(S'5'
g6
F96.400000000000006
tp86
a(S'5'
g12
F60.700000000000003
tp87
asS'Gilmor Elementary'
p88
(lp89
(S'3'
g4
F41.700000000000003
tp90
a(S'3'
g6
F48.600000000000001
tp91
a(S'4'
g4
F41.399999999999999
tp92
a(S'4'
g6
F38.600000000000001
tp93
a(S'5'
g4
F23
tp94
a(S'5'
g6
F39.299999999999997
tp95
a(S'5'
g12
F11.300000000000001
tp96
a(S'6'
g4
F23.399999999999999
tp97
a(S'6'
g6
F51.100000000000001
tp98
asS'Samuel F. B. Morse Elementary'
p99
(lp100
(S'3'
g4
F72.299999999999997
tp101
a(S'3'
g6
F68.099999999999994
tp102
a(S'4'
g4
F42.299999999999997
tp103
a(S'4'
g6
F36.5
tp104
a(S'5'
g4
F40.5
tp105
a(S'5'
g6
F59.5
tp106
a(S'5'
g12
F15.800000000000001
tp107
asS'Inner Harbor East Academy'
p108
(lp109
(S'3'
g4
F65.700000000000003
tp110
a(S'3'
g6
F74.299999999999997
tp111
a(S'4'
g4
F83.299999999999997
tp112
a(S'4'
g6
F88.900000000000006
tp113
a(S'5'
g4
F61.100000000000001
tp114
a(S'5'
g6
F94.400000000000006
tp115
a(S'5'
g12
F66.700000000000003
tp116
asS'Furley Elementary'
p117
(lp118
(S'3'
g4
F65.599999999999994
tp119
a(S'3'
g6
F76.099999999999994
tp120
a(S'4'
g4
F70.5
tp121
a(S'4'
g6
F82.099999999999994
tp122
a(S'5'
g4
F56.700000000000003
tp123
a(S'5'
g6
F69.200000000000003
tp124
a(S'5'
g12
F37.5
tp125
asS'Hilton Elementary'
p126
(lp127
(S'3'
g4
F87.900000000000006
tp128
a(S'3'
g6
F78.799999999999997
tp129
a(S'4'
g4
F90.900000000000006
tp130
a(S'4'
g6
F90.900000000000006
tp131
a(S'5'
g4
F83.299999999999997
tp132
a(S'5'
g6
F77.799999999999997
tp133
a(S'5'
g12
F75
tp134
asS'Langston Hughes Elementary'
p135
(lp136
(S'3'
g4
F72.700000000000003
tp137
a(S'3'
g6
F93.900000000000006
tp138
a(S'4'
g4
F100
tp139
a(S'4'
g6
F100
tp140
a(S'5'
g4
F57.100000000000001
tp141
a(S'5'
g6
F92.900000000000006
tp142
a(S'5'
g12
F21.399999999999999
tp143
asS'Walter P. Carter Elementary'
p144
(lp145
(S'3'
g4
F80
tp146
a(S'3'
g6
F80
tp147
a(S'4'
g4
F78.099999999999994
tp148
a(S'4'
g6
F87.5
tp149
a(S'5'
g4
F53.200000000000003
tp150
a(S'5'
g6
F80.900000000000006
tp151
a(S'5'
g12
F27.100000000000001
tp152
a(S'6'
g4
F93.799999999999997
tp153
a(S'6'
g6
F87.5
tp154
asS'Empowerment Academy'
p155
(lp156
(S'3'
g4
F95.200000000000003
tp157
a(S'3'
g6
F95.200000000000003
tp158
a(S'4'
g4
F83.299999999999997
tp159
a(S'4'
g6
F85.700000000000003
tp160
a(S'5'
g4
F85
tp161
a(S'5'
g6
F70
tp162
a(S'5'
g12
F52.600000000000001
tp163
a(S'6'
g4
F90.900000000000006
tp164
a(S'6'
g6
F81.799999999999997
tp165
asS'Belmont Elementary'
p166
(lp167
(S'3'
g4
F78.200000000000003
tp168
a(S'3'
g6
F70.900000000000006
tp169
a(S'4'
g4
F67.599999999999994
tp170
a(S'4'
g6
F73
tp171
a(S'5'
g4
F38.5
tp172
a(S'5'
g6
F69.200000000000003
tp173
a(S'5'
g12
F13.699999999999999
tp174
asS'Sarah M. Roach Elementary'
p175
(lp176
(S'3'
g4
F68.299999999999997
tp177
a(S'3'
g6
F48.799999999999997
tp178
a(S'4'
g4
F66
tp179
a(S'4'
g6
F76.599999999999994
tp180
a(S'5'
g4
F83.700000000000003
tp181
a(S'5'
g6
F79.099999999999994
tp182
a(S'5'
g12
F26.199999999999999
tp183
asS'Bentalou Elementary'
p184
(lp185
(S'3'
g4
F81
tp186
a(S'3'
g6
F83.099999999999994
tp187
a(S'4'
g4
F94.900000000000006
tp188
a(S'4'
g6
F94.900000000000006
tp189
a(S'5'
g4
F87.5
tp190
a(S'5'
g6
F89.299999999999997
tp191
a(S'5'
g12
F76.400000000000006
tp192
asS'Sharp-Leadenhall Elementary'
p193
(lp194
(S'3'
g4
F37.5
tp195
a(S'3'
g6
F50
tp196
a(S'4'
g4
F93.799999999999997
tp197
a(S'4'
g6
F70.599999999999994
tp198
a(S'5'
g4
F52.899999999999999
tp199
a(S'5'
g6
F64.700000000000003
tp200
a(S'5'
g12
F11.1
tp201
asS'Liberty Elementary'
p202
(lp203
(S'3'
g4
F94.099999999999994
tp204
a(S'3'
g6
F98
tp205
a(S'4'
g4
F88.5
tp206
a(S'4'
g6
F93.299999999999997
tp207
a(S'5'
g4
F54.799999999999997
tp208
a(S'5'
g6
F88.099999999999994
tp209
a(S'5'
g12
F38.100000000000001
tp210
asS'Dr. Bernard Harris, Sr. Elementary'
p211
(lp212
(S'3'
g4
F84.799999999999997
tp213
a(S'3'
g6
F80
tp214
a(S'4'
g4
F76.299999999999997
tp215
a(S'4'
g6
F72.900000000000006
tp216
a(S'5'
g4
F60
tp217
a(S'5'
g6
F67.099999999999994
tp218
a(S'5'
g12
F37.100000000000001
tp219
asS'Calvin M. Rodwell Elementary'
p220
(lp221
(S'3'
g4
F86.400000000000006
tp222
a(S'3'
g6
F97.700000000000003
tp223
a(S'4'
g4
F73.099999999999994
tp224
a(S'4'
g6
F86.5
tp225
a(S'5'
g4
F95
tp226
a(S'5'
g6
F87.5
tp227
a(S'5'
g12
F40
tp228
asS'Edgecombe Circle Elementary'
p229
(lp230
(S'3'
g4
F58.799999999999997
tp231
a(S'3'
g6
F51.299999999999997
tp232
a(S'4'
g4
F60.600000000000001
tp233
a(S'4'
g6
F79.200000000000003
tp234
a(S'5'
g4
F55.799999999999997
tp235
a(S'5'
g6
F71.200000000000003
tp236
a(S'5'
g12
F27.5
tp237
a(S'6'
g4
F63.299999999999997
tp238
a(S'6'
g6
F71.400000000000006
tp239
asS'Furman L. Templeton Elementary'
p240
(lp241
(S'3'
g4
F40.799999999999997
tp242
a(S'3'
g6
F43.899999999999999
tp243
a(S'4'
g4
F67.200000000000003
tp244
a(S'4'
g6
F69
tp245
a(S'5'
g4
F41.700000000000003
tp246
a(S'5'
g6
F47.200000000000003
tp247
a(S'5'
g12
F14.1
tp248
a(S'6'
g4
F54.399999999999999
tp249
a(S'6'
g6
F60.299999999999997
tp250
asS'Grove Park Elementary'
p251
(lp252
(S'3'
g4
F69.099999999999994
tp253
a(S'3'
g6
F69.099999999999994
tp254
a(S'4'
g4
F93.299999999999997
tp255
a(S'4'
g6
F88.299999999999997
tp256
a(S'5'
g4
F78
tp257
a(S'5'
g6
F76
tp258
a(S'5'
g12
F44.899999999999999
tp259
a(S'6'
g4
F75.900000000000006
tp260
a(S'6'
g6
F85.200000000000003
tp261
asS'Callaway Elementary'
p262
(lp263
(S'3'
g4
F80
tp264
a(S'3'
g6
F100
tp265
a(S'4'
g4
F93.099999999999994
tp266
a(S'4'
g6
F81
tp267
a(S'5'
g4
F75.599999999999994
tp268
a(S'5'
g6
F77.799999999999997
tp269
a(S'5'
g12
F34.799999999999997
tp270
asS'Dallas F. Nicholas Sr. Elementary'
p271
(lp272
(S'3'
g4
F78
tp273
a(S'3'
g6
F68.299999999999997
tp274
a(S'4'
g4
F88.599999999999994
tp275
a(S'4'
g6
F97.700000000000003
tp276
a(S'5'
g4
F89.5
tp277
a(S'5'
g6
F89.5
tp278
a(S'5'
g12
F63.200000000000003
tp279
asS'Fort Worthington Elementary'
p280
(lp281
(S'3'
g4
F90.900000000000006
tp282
a(S'3'
g6
F88.099999999999994
tp283
a(S'4'
g4
F88.099999999999994
tp284
a(S'4'
g6
F91.700000000000003
tp285
a(S'5'
g4
F86.299999999999997
tp286
a(S'5'
g6
F86.299999999999997
tp287
a(S'5'
g12
F31.100000000000001
tp288
asS'Northwood Community Academy'
p289
(lp290
(S'3'
g4
F86.5
tp291
a(S'3'
g6
F78.400000000000006
tp292
a(S'4'
g4
F71.099999999999994
tp293
a(S'4'
g6
F89.5
tp294
asS'Leith Walk Elementary'
p295
(lp296
(S'3'
g4
F85.200000000000003
tp297
a(S'3'
g6
F89.400000000000006
tp298
a(S'4'
g4
F90
tp299
a(S'4'
g6
F94.400000000000006
tp300
a(S'5'
g4
F79.700000000000003
tp301
a(S'5'
g6
F84.5
tp302
a(S'5'
g12
F45.899999999999999
tp303
asS'Harriet Tubman Elementary'
p304
(lp305
(S'3'
g4
F40
tp306
a(S'3'
g6
F36.700000000000003
tp307
a(S'4'
g4
F59.299999999999997
tp308
a(S'4'
g6
F59.299999999999997
tp309
a(S'5'
g4
F43.5
tp310
a(S'5'
g6
F56.5
tp311
a(S'5'
g12
F26.100000000000001
tp312
asS'Robert W. Coleman Elementary'
p313
(lp314
(S'3'
g4
F75
tp315
a(S'3'
g6
F68.799999999999997
tp316
a(S'4'
g4
F74.5
tp317
a(S'4'
g6
F76.599999999999994
tp318
a(S'5'
g4
F90.900000000000006
tp319
a(S'5'
g6
F77.299999999999997
tp320
a(S'5'
g12
F60.5
tp321
asS'Lockerman Bundy Elementary'
p322
(lp323
(S'3'
g4
F77.799999999999997
tp324
a(S'3'
g6
F83.299999999999997
tp325
a(S'4'
g4
F92
tp326
a(S'4'
g6
F84
tp327
a(S'5'
g4
F85.200000000000003
tp328
a(S'5'
g6
F77.799999999999997
tp329
a(S'5'
g12
F50
tp330
asS'Windsor Hills Elementary'
p331
(lp332
(S'3'
g4
F93.799999999999997
tp333
a(S'3'
g6
F100
tp334
a(S'4'
g4
F88
tp335
a(S'4'
g6
F76
tp336
a(S'5'
g4
F68.200000000000003
tp337
a(S'5'
g6
F81.799999999999997
tp338
a(S'5'
g12
F36.399999999999999
tp339
a(S'6'
g4
F33.299999999999997
tp340
a(S'6'
g6
F66.700000000000003
tp341
asS'John Eager Howard Elementary'
p342
(lp343
(S'3'
g4
F75
tp344
a(S'3'
g6
F75
tp345
a(S'4'
g4
F88.900000000000006
tp346
a(S'4'
g6
F92.599999999999994
tp347
a(S'5'
g4
F50
tp348
a(S'5'
g6
F68
tp349
a(S'5'
g12
F60.899999999999999
tp350
asS'Northwood Elementary'
p351
(lp352
(S'3'
g4
F77.299999999999997
tp353
a(S'3'
g6
F80.400000000000006
tp354
a(S'4'
g4
F89.099999999999994
tp355
a(S'4'
g6
F87
tp356
a(S'5'
g4
F68.599999999999994
tp357
a(S'5'
g6
F83.299999999999997
tp358
a(S'5'
g12
F46.700000000000003
tp359
asS'Alexander Hamilton Elementary'
p360
(lp361
(S'3'
g4
F66.700000000000003
tp362
a(S'3'
g6
F61.5
tp363
a(S'4'
g4
F83.599999999999994
tp364
a(S'4'
g6
F80.599999999999994
tp365
a(S'5'
g4
F69.400000000000006
tp366
a(S'5'
g6
F63.899999999999999
tp367
a(S'5'
g12
F38.899999999999999
tp368
asS'Lyndhurst Elementary'
p369
(lp370
(S'3'
g4
F87.799999999999997
tp371
a(S'3'
g6
F77.5
tp372
a(S'4'
g4
F100
tp373
a(S'4'
g6
F100
tp374
a(S'5'
g4
F76.700000000000003
tp375
a(S'5'
g6
F83.299999999999997
tp376
a(S'5'
g12
F60
tp377
asS'John Ruhrah Elementary'
p378
(lp379
(S'3'
g4
F86.299999999999997
tp380
a(S'3'
g6
F72
tp381
a(S'4'
g4
F84.099999999999994
tp382
a(S'4'
g6
F72.700000000000003
tp383
a(S'5'
g4
F76.799999999999997
tp384
a(S'5'
g6
F76.799999999999997
tp385
a(S'5'
g12
F47.399999999999999
tp386
a(S'6'
g4
F73.5
tp387
a(S'6'
g6
F76.5
tp388
asS'Arlington Elementary'
p389
(lp390
(S'3'
g4
F66.299999999999997
tp391
a(S'3'
g6
F80.200000000000003
tp392
a(S'4'
g4
F94.700000000000003
tp393
a(S'4'
g6
F85.299999999999997
tp394
a(S'5'
g4
F68.799999999999997
tp395
a(S'5'
g6
F90.599999999999994
tp396
a(S'5'
g12
F34.399999999999999
tp397
a(S'6'
g4
F53.700000000000003
tp398
a(S'6'
g6
F76.099999999999994
tp399
asS'Govans Elementary'
p400
(lp401
(S'3'
g4
F85.099999999999994
tp402
a(S'3'
g6
F85.099999999999994
tp403
a(S'4'
g4
F82.400000000000006
tp404
a(S'4'
g6
F72.5
tp405
a(S'5'
g4
F58.899999999999999
tp406
a(S'5'
g6
F66.099999999999994
tp407
a(S'5'
g12
F23.199999999999999
tp408
asS'Cecil Elementary'
p409
(lp410
(S'3'
g4
F98.099999999999994
tp411
a(S'3'
g6
F98.099999999999994
tp412
a(S'4'
g4
F97.900000000000006
tp413
a(S'4'
g6
F95.799999999999997
tp414
a(S'5'
g4
F90.5
tp415
a(S'5'
g6
F92.900000000000006
tp416
a(S'5'
g12
F33.299999999999997
tp417
asS'The Historic Samuel Coleridge-Taylor Elementary'
p418
(lp419
(S'3'
g4
F36.5
tp420
a(S'3'
g6
F42.299999999999997
tp421
a(S'4'
g4
F58.100000000000001
tp422
a(S'4'
g6
F67.400000000000006
tp423
a(S'5'
g4
F76
tp424
a(S'5'
g6
F78
tp425
a(S'5'
g12
F21.600000000000001
tp426
asS'Harford Heights Primary'
p427
(lp428
sS'Mount Washington Elementary'
p429
(lp430
(S'3'
g4
F84.200000000000003
tp431
a(S'3'
g6
F94.700000000000003
tp432
a(S'4'
g4
F100
tp433
a(S'4'
g6
F100
tp434
a(S'5'
g4
F91.099999999999994
tp435
a(S'5'
g6
F100
tp436
a(S'5'
g12
F73.200000000000003
tp437
asS'Abbottston Elementary'
p438
(lp439
(S'3'
g4
F100
tp440
a(S'3'
g6
F97.299999999999997
tp441
a(S'4'
g4
F94.400000000000006
tp442
a(S'4'
g6
F100
tp443
a(S'5'
g4
F86.799999999999997
tp444
a(S'5'
g6
F89.5
tp445
a(S'5'
g12
F13.5
tp446
asS'Mary E. Rodman Elementary'
p447
(lp448
(S'3'
g4
F43.399999999999999
tp449
a(S'3'
g6
F66.299999999999997
tp450
a(S'4'
g4
F82.700000000000003
tp451
a(S'4'
g6
F82.400000000000006
tp452
a(S'5'
g4
F41.200000000000003
tp453
a(S'5'
g6
F76.5
tp454
a(S'5'
g12
F37.5
tp455
asS'Yorkwood Elementary'
p456
(lp457
(S'3'
g4
F62.700000000000003
tp458
a(S'3'
g6
F57.299999999999997
tp459
a(S'4'
g4
F84.799999999999997
tp460
a(S'4'
g6
F81.799999999999997
tp461
a(S'5'
g4
F61
tp462
a(S'5'
g6
F80
tp463
a(S'5'
g12
F36.700000000000003
tp464
asS'Edgewood Elementary'
p465
(lp466
(S'3'
g4
F78.599999999999994
tp467
a(S'3'
g6
F69
tp468
a(S'4'
g4
F62.200000000000003
tp469
a(S'4'
g6
F73
tp470
a(S'5'
g4
F68.900000000000006
tp471
a(S'5'
g6
F66.700000000000003
tp472
a(S'5'
g12
F33.299999999999997
tp473
asS'Franklin Square Elementary'
p474
(lp475
(S'3'
g4
F97.799999999999997
tp476
a(S'3'
g6
F100
tp477
a(S'4'
g4
F97
tp478
a(S'4'
g6
F97.099999999999994
tp479
a(S'5'
g4
F87.799999999999997
tp480
a(S'5'
g6
F95.099999999999994
tp481
a(S'5'
g12
F75.599999999999994
tp482
a(S'6'
g4
F94.400000000000006
tp483
a(S'6'
g6
F97.200000000000003
tp484
asS'Matthew A. Henson Elementary'
p485
(lp486
(S'3'
g4
F62.5
tp487
a(S'3'
g6
F66
tp488
a(S'4'
g4
F93.400000000000006
tp489
a(S'4'
g6
F93.400000000000006
tp490
a(S'5'
g4
F69.700000000000003
tp491
a(S'5'
g6
F68.200000000000003
tp492
a(S'5'
g12
F14.300000000000001
tp493
asS'Westside Elementary'
p494
(lp495
(S'3'
g4
F94.599999999999994
tp496
a(S'3'
g6
F94.599999999999994
tp497
a(S'4'
g4
F81.299999999999997
tp498
a(S'4'
g6
F68.799999999999997
tp499
a(S'5'
g4
F67.700000000000003
tp500
a(S'5'
g6
F87.099999999999994
tp501
a(S'5'
g12
F41.899999999999999
tp502
asS'Curtis Bay Elementary'
p503
(lp504
(S'3'
g4
F70.700000000000003
tp505
a(S'3'
g6
F69
tp506
a(S'4'
g4
F69
tp507
a(S'4'
g6
F67.200000000000003
tp508
a(S'5'
g4
F59.5
tp509
a(S'5'
g6
F57.100000000000001
tp510
a(S'5'
g12
F37.799999999999997
tp511
asS'William Paca Elementary'
p512
(lp513
(S'3'
g4
F74.700000000000003
tp514
a(S'3'
g6
F72.700000000000003
tp515
a(S'4'
g4
F76
tp516
a(S'4'
g6
F71.200000000000003
tp517
a(S'5'
g4
F95.299999999999997
tp518
a(S'5'
g6
F83.5
tp519
a(S'5'
g12
F23.100000000000001
tp520
a(S'6'
g4
F97.799999999999997
tp521
a(S'6'
g6
F87
tp522
asS'The Green School'
p523
(lp524
(S'3'
g4
F87.5
tp525
a(S'3'
g6
F93.799999999999997
tp526
asS'Highlandtown Elementary #0237'
p527
(lp528
(S'3'
g4
F63
tp529
a(S'3'
g6
F70.400000000000006
tp530
a(S'4'
g4
F80
tp531
a(S'4'
g6
F86.200000000000003
tp532
a(S'5'
g4
F81.5
tp533
a(S'5'
g6
F77.799999999999997
tp534
a(S'5'
g12
F35.700000000000003
tp535
a(S'6'
g4
F80.599999999999994
tp536
a(S'6'
g6
F77.799999999999997
tp537
asS'Johnston Square Elementary'
p538
(lp539
(S'3'
g4
F90.799999999999997
tp540
a(S'3'
g6
F89.200000000000003
tp541
a(S'4'
g4
F95
tp542
a(S'4'
g6
F98.299999999999997
tp543
a(S'5'
g4
F84.599999999999994
tp544
a(S'5'
g6
F94.200000000000003
tp545
a(S'5'
g12
F30.399999999999999
tp546
asS'Sinclair Lane Elementary'
p547
(lp548
(S'3'
g4
F82.900000000000006
tp549
a(S'3'
g6
F71.799999999999997
tp550
a(S'4'
g4
F75
tp551
a(S'4'
g6
F55.799999999999997
tp552
a(S'5'
g4
F77.599999999999994
tp553
a(S'5'
g6
F75.900000000000006
tp554
a(S'5'
g12
F45.600000000000001
tp555
asS'Montebello Elementary'
p556
(lp557
(S'3'
g4
F60.5
tp558
a(S'3'
g6
F60.200000000000003
tp559
a(S'4'
g4
F81.400000000000006
tp560
a(S'4'
g6
F85.799999999999997
tp561
a(S'5'
g4
F55.399999999999999
tp562
a(S'5'
g6
F70
tp563
a(S'5'
g12
F26.5
tp564
a(S'6'
g4
F58.100000000000001
tp565
a(S'6'
g6
F70.900000000000006
tp566
asS'Garrett Heights Elementary'
p567
(lp568
(S'3'
g4
F78.700000000000003
tp569
a(S'3'
g6
F87.5
tp570
a(S'4'
g4
F74.099999999999994
tp571
a(S'4'
g6
F92.599999999999994
tp572
a(S'5'
g4
F74
tp573
a(S'5'
g6
F86
tp574
a(S'5'
g12
F51
tp575
a(S'6'
g4
F86.400000000000006
tp576
a(S'6'
g6
F86.400000000000006
tp577
asS'William Pinderhughes Elementary'
p578
(lp579
(S'3'
g4
F100
tp580
a(S'3'
g6
F94.099999999999994
tp581
a(S'4'
g4
F90.900000000000006
tp582
a(S'4'
g6
F81.799999999999997
tp583
a(S'5'
g4
F60.899999999999999
tp584
a(S'5'
g6
F69.599999999999994
tp585
a(S'5'
g12
F34.799999999999997
tp586
asS'Alternative Elementary School'
p587
(lp588
sS'Holabird Elementary'
p589
(lp590
(S'3'
g4
F68.200000000000003
tp591
a(S'3'
g6
F63.600000000000001
tp592
a(S'4'
g4
F83.299999999999997
tp593
a(S'4'
g6
F82.599999999999994
tp594
a(S'5'
g4
F78.299999999999997
tp595
a(S'5'
g6
F78.299999999999997
tp596
a(S'5'
g12
F60.899999999999999
tp597
a(S'6'
g4
F94.700000000000003
tp598
a(S'6'
g6
F88.900000000000006
tp599
asS'General Wolfe Elementary'
p600
(lp601
(S'3'
g4
F60
tp602
a(S'3'
g6
F62.5
tp603
a(S'4'
g4
F95.200000000000003
tp604
a(S'4'
g6
F76.200000000000003
tp605
a(S'5'
g4
F94.099999999999994
tp606
a(S'5'
g6
F94.099999999999994
tp607
a(S'5'
g12
F5.9000000000000004
tp608
asS'Gwynns Falls Elementary'
p609
(lp610
(S'3'
g4
F92.900000000000006
tp611
a(S'3'
g6
F91.099999999999994
tp612
a(S'4'
g4
F92.900000000000006
tp613
a(S'4'
g6
F90
tp614
a(S'5'
g4
F95.400000000000006
tp615
a(S'5'
g6
F98.5
tp616
a(S'5'
g12
F84.599999999999994
tp617
asS'Medfield Heights Elementary'
p618
(lp619
(S'3'
g4
F95.900000000000006
tp620
a(S'3'
g6
F91.799999999999997
tp621
a(S'4'
g4
F89.5
tp622
a(S'4'
g6
F87.700000000000003
tp623
a(S'5'
g4
F83
tp624
a(S'5'
g6
F88.700000000000003
tp625
a(S'5'
g12
F49.100000000000001
tp626
asS'James McHenry Elementary'
p627
(lp628
(S'3'
g4
F75.5
tp629
a(S'3'
g6
F87.799999999999997
tp630
a(S'4'
g4
F85.700000000000003
tp631
a(S'4'
g6
F88.099999999999994
tp632
a(S'5'
g4
F64.200000000000003
tp633
a(S'5'
g6
F79.200000000000003
tp634
a(S'5'
g12
F35.299999999999997
tp635
asS'Eutaw-Marshburn Elementary'
p636
(lp637
(S'3'
g4
F60.399999999999999
tp638
a(S'3'
g6
F54.200000000000003
tp639
a(S'4'
g4
F70.799999999999997
tp640
a(S'4'
g6
F72.900000000000006
tp641
a(S'5'
g4
F72.400000000000006
tp642
a(S'5'
g6
F62.100000000000001
tp643
a(S'5'
g12
F27.600000000000001
tp644
asS'Southwest Baltimore Charter School'
p645
(lp646
(S'3'
g4
F82.5
tp647
a(S'3'
g6
F72.5
tp648
asS'Gardenville Elementary'
p649
(lp650
(S'3'
g4
F90.599999999999994
tp651
a(S'3'
g6
F89.099999999999994
tp652
a(S'4'
g4
F83.299999999999997
tp653
a(S'4'
g6
F87
tp654
a(S'5'
g4
F93
tp655
a(S'5'
g6
F91.200000000000003
tp656
a(S'5'
g12
F48.299999999999997
tp657
asS'Patterson Park Public Charter School'
p658
(lp659
(S'3'
g4
F54.700000000000003
tp660
a(S'3'
g6
F57.799999999999997
tp661
a(S'4'
g4
F69.700000000000003
tp662
a(S'4'
g6
F66.700000000000003
tp663
a(S'5'
g4
F62.200000000000003
tp664
a(S'5'
g6
F77.799999999999997
tp665
a(S'5'
g12
F34.100000000000001
tp666
a(S'6'
g4
F47.700000000000003
tp667
a(S'6'
g6
F70.5
tp668
asS'Frederick Elementary'
p669
(lp670
(S'3'
g4
F61.100000000000001
tp671
a(S'3'
g6
F63
tp672
a(S'4'
g4
F66
tp673
a(S'4'
g6
F57.399999999999999
tp674
a(S'5'
g4
F48.700000000000003
tp675
a(S'5'
g6
F51.299999999999997
tp676
a(S'5'
g12
F27.5
tp677
as.