(dp1
S'Lois T. Murray Elementary'
p2
(lp3
sS'Francis Scott Key Elementary/Middle'
p4
(lp5
(S'math'
p6
F91.299999999999997
tp7
a(S'reading'
p8
F82.599999999999994
tp9
a(g6
F92
tp10
a(g8
F84
tp11
a(g6
F83.299999999999997
tp12
a(g8
F87.5
tp13
a(S'science'
p14
F37.5
tp15
a(g6
F76.700000000000003
tp16
a(g8
F86.5
tp17
a(g6
F66.200000000000003
tp18
a(g8
F86.299999999999997
tp19
a(g6
F37.399999999999999
tp20
a(g8
F72.900000000000006
tp21
a(g14
F59.299999999999997
tp22
asS'City Neighbors Charter School'
p23
(lp24
(g6
F77.299999999999997
tp25
a(g8
F81.799999999999997
tp26
a(g6
F68.200000000000003
tp27
a(g8
F86.400000000000006
tp28
a(g6
F59.100000000000001
tp29
a(g8
F81.799999999999997
tp30
a(g14
F77.299999999999997
tp31
a(g6
F42.899999999999999
tp32
a(g8
F81
tp33
a(g6
F59.100000000000001
tp34
a(g8
F95.5
tp35
asS'Morrell Park Elementary/Middle'
p36
(lp37
(g6
F100
tp38
a(g8
F95.200000000000003
tp39
a(g6
F86.799999999999997
tp40
a(g8
F86.5
tp41
a(g6
F86.5
tp42
a(g8
F81.099999999999994
tp43
a(g14
F56.799999999999997
tp44
a(g6
F55.899999999999999
tp45
a(g8
F60
tp46
a(g6
F68.099999999999994
tp47
a(g8
F70.200000000000003
tp48
a(g6
F61.299999999999997
tp49
a(g8
F61.299999999999997
tp50
a(g14
F24.100000000000001
tp51
asS'Margaret Brent Elementary'
p52
(lp53
(g6
F93.5
tp54
a(g8
F87.099999999999994
tp55
a(g6
F96.299999999999997
tp56
a(g8
F77.799999999999997
tp57
a(g6
F72.700000000000003
tp58
a(g8
F95.5
tp59
a(g14
F54.5
tp60
a(g6
F81.799999999999997
tp61
a(g8
F87
tp62
a(g6
F61.100000000000001
tp63
a(g8
F75
tp64
asS'Violetville Elementary/Middle'
p65
(lp66
(g6
F71.099999999999994
tp67
a(g8
F78.900000000000006
tp68
a(g6
F81.099999999999994
tp69
a(g8
F75.700000000000003
tp70
a(g6
F78.599999999999994
tp71
a(g8
F81
tp72
a(g14
F57.100000000000001
tp73
a(g6
F64.700000000000003
tp74
a(g8
F70.599999999999994
tp75
a(g6
F50
tp76
a(g8
F64.799999999999997
tp77
a(g6
F45.200000000000003
tp78
a(g8
F61.899999999999999
tp79
a(g14
F35.700000000000003
tp80
asS'Beechfield Elementary'
p81
(lp82
(g6
F77.900000000000006
tp83
a(g8
F76.799999999999997
tp84
a(g6
F85.900000000000006
tp85
a(g8
F78.900000000000006
tp86
a(g6
F29.199999999999999
tp87
a(g8
F53.700000000000003
tp88
a(g14
F14.9
tp89
a(g6
F36.399999999999999
tp90
a(g8
F62.600000000000001
tp91
a(g6
F19
tp92
a(g8
F46.200000000000003
tp93
asS'Hampstead Hill Academy'
p94
(lp95
(g6
F94.5
tp96
a(g8
F83.599999999999994
tp97
a(g6
F85.400000000000006
tp98
a(g8
F78.700000000000003
tp99
a(g6
F57.100000000000001
tp100
a(g8
F73.799999999999997
tp101
a(g14
F39
tp102
a(g6
F94.099999999999994
tp103
a(g8
F82.400000000000006
tp104
a(g6
F42.100000000000001
tp105
a(g8
F73.700000000000003
tp106
a(g6
F51.100000000000001
tp107
a(g8
F55.600000000000001
tp108
a(g14
F43.5
tp109
asS'Tench Tilghman Elementary'
p110
(lp111
(g6
F69.200000000000003
tp112
a(g8
F74.400000000000006
tp113
a(g6
F59.399999999999999
tp114
a(g8
F71.900000000000006
tp115
a(g6
F63.399999999999999
tp116
a(g8
F68.299999999999997
tp117
a(g14
F18.199999999999999
tp118
a(g6
F55.600000000000001
tp119
a(g8
F60
tp120
a(g6
F63.600000000000001
tp121
a(g8
F95.5
tp122
asS'Dr. Rayner Browne Elementary'
p123
(lp124
(g6
F64.299999999999997
tp125
a(g8
F53.600000000000001
tp126
a(g6
F52.899999999999999
tp127
a(g8
F58.799999999999997
tp128
a(g6
F63
tp129
a(g8
F70.400000000000006
tp130
a(g14
F12
tp131
a(g6
F48
tp132
a(g8
F52
tp133
a(g6
F36
tp134
a(g8
F64
tp135
asS'New Song Academy'
p136
(lp137
(g6
F69.200000000000003
tp138
a(g8
F92.299999999999997
tp139
a(g6
F66.700000000000003
tp140
a(g8
F75
tp141
a(g6
F61.5
tp142
a(g8
F61.5
tp143
a(g14
F30.800000000000001
tp144
a(g6
F20
tp145
a(g8
F66.700000000000003
tp146
a(g6
F26.699999999999999
tp147
a(g8
F93.299999999999997
tp148
a(g6
F25
tp149
a(g8
F75
tp150
a(g14
F33.299999999999997
tp151
asS'Moravia Park Primary'
p152
(lp153
(g6
F68.200000000000003
tp154
a(g8
F65.900000000000006
tp155
a(g6
F75.900000000000006
tp156
a(g8
F83.900000000000006
tp157
a(g6
F68.900000000000006
tp158
a(g8
F64.900000000000006
tp159
a(g14
F37
tp160
a(g6
F67
tp161
a(g8
F59.600000000000001
tp162
a(g6
F15.4
tp163
a(g8
F53.299999999999997
tp164
a(g6
F22.100000000000001
tp165
a(g8
F45.299999999999997
tp166
a(g14
F17.199999999999999
tp167
asS'Commodore John Rogers Elementary'
p168
(lp169
(g6
F84.400000000000006
tp170
a(g8
F77.400000000000006
tp171
a(g6
F58.299999999999997
tp172
a(g8
F70.799999999999997
tp173
a(g6
F43.299999999999997
tp174
a(g8
F46.700000000000003
tp175
a(g14
F13.800000000000001
tp176
a(g6
F37.799999999999997
tp177
a(g8
F41.700000000000003
tp178
a(g6
F23.100000000000001
tp179
a(g8
F63.5
tp180
asS'Dickey Hill Elementary/Middle'
p181
(lp182
(g6
F84.099999999999994
tp183
a(g8
F77.299999999999997
tp184
a(g6
F89.299999999999997
tp185
a(g8
F85.700000000000003
tp186
a(g6
F43.200000000000003
tp187
a(g8
F73
tp188
a(g14
F35.100000000000001
tp189
a(g6
F43.200000000000003
tp190
a(g8
F59.100000000000001
tp191
a(g6
F34.799999999999997
tp192
a(g8
F71.700000000000003
tp193
a(g6
F32.700000000000003
tp194
a(g8
F61.799999999999997
tp195
a(g14
F18.5
tp196
asS'Thomas Jefferson Elementary'
p197
(lp198
(g6
F82.5
tp199
a(g8
F80
tp200
a(g6
F79.5
tp201
a(g8
F79.5
tp202
a(g6
F87.5
tp203
a(g8
F92.5
tp204
a(g14
F80
tp205
a(g6
F45.299999999999997
tp206
a(g8
F64.200000000000003
tp207
a(g6
F22.199999999999999
tp208
a(g8
F74.099999999999994
tp209
asS'Stadium School'
p210
(lp211
(g6
F66.700000000000003
tp212
a(g8
F60
tp213
a(g14
F33.299999999999997
tp214
a(g6
F59.200000000000003
tp215
a(g8
F78.900000000000006
tp216
a(g6
F42.700000000000003
tp217
a(g8
F73.200000000000003
tp218
a(g6
F48.600000000000001
tp219
a(g8
F67.599999999999994
tp220
a(g14
F45.899999999999999
tp221
asS'Fallstaff Elementary'
p222
(lp223
(g6
F60.700000000000003
tp224
a(g8
F57.100000000000001
tp225
a(g6
F63.600000000000001
tp226
a(g8
F70.5
tp227
a(g6
F25
tp228
a(g8
F61.100000000000001
tp229
a(g14
F25.699999999999999
tp230
a(g6
F88.200000000000003
tp231
a(g8
F70.599999999999994
tp232
a(g6
F78.900000000000006
tp233
a(g8
F65.799999999999997
tp234
asS'Highlandtown Elementary #215'
p235
(lp236
(g6
F43.600000000000001
tp237
a(g8
F46.299999999999997
tp238
a(g6
F64.700000000000003
tp239
a(g8
F75.799999999999997
tp240
a(g6
F52.600000000000001
tp241
a(g8
F57.899999999999999
tp242
a(g14
F32.399999999999999
tp243
a(g6
F34.100000000000001
tp244
a(g8
F47.700000000000003
tp245
a(g6
F16.899999999999999
tp246
a(g8
F62.100000000000001
tp247
asS'Rognel Heights Elementary/Middle'
p248
(lp249
(g6
F65
tp250
a(g8
F60
tp251
a(g6
F86.700000000000003
tp252
a(g8
F73.299999999999997
tp253
a(g6
F25.600000000000001
tp254
a(g8
F74.400000000000006
tp255
a(g14
F36.799999999999997
tp256
a(g6
F35.299999999999997
tp257
a(g8
F72
tp258
a(g6
F36.5
tp259
a(g8
F63.5
tp260
a(g6
F32.700000000000003
tp261
a(g8
F58.200000000000003
tp262
a(g14
F32.100000000000001
tp263
asS'Federal Hill Preparatory School'
p264
(lp265
(g6
F84.400000000000006
tp266
a(g8
F84.400000000000006
tp267
a(g6
F92.299999999999997
tp268
a(g8
F94.900000000000006
tp269
a(g6
F80
tp270
a(g8
F82.5
tp271
a(g14
F61.5
tp272
a(g6
F91.700000000000003
tp273
a(g8
F83.299999999999997
tp274
a(g6
F77.799999999999997
tp275
a(g8
F66.700000000000003
tp276
a(g6
F91.299999999999997
tp277
a(g8
F69.599999999999994
tp278
a(g14
F21.699999999999999
tp279
asS'Harlem Park Elementary'
p280
(lp281
(g6
F73.900000000000006
tp282
a(g8
F95.700000000000003
tp283
a(g6
F53.799999999999997
tp284
a(g8
F69.200000000000003
tp285
a(g6
F59.5
tp286
a(g8
F73.799999999999997
tp287
a(g14
F26.199999999999999
tp288
a(g6
F27.699999999999999
tp289
a(g8
F46.799999999999997
tp290
a(g6
F50
tp291
a(g8
F69.400000000000006
tp292
asS'Glenmount Elementary/Middle'
p293
(lp294
(g6
F61.200000000000003
tp295
a(g8
F70.599999999999994
tp296
a(g6
F62.899999999999999
tp297
a(g8
F67.599999999999994
tp298
a(g6
F77.099999999999994
tp299
a(g8
F87.5
tp300
a(g14
F46.799999999999997
tp301
a(g6
F42.100000000000001
tp302
a(g8
F75
tp303
a(g6
F49
tp304
a(g8
F75.5
tp305
a(g6
F39
tp306
a(g8
F57.399999999999999
tp307
a(g14
F31
tp308
asS'Dr. Carter Godwin Woodson Prek through 8'
p309
(lp310
(g6
F62.200000000000003
tp311
a(g8
F60
tp312
a(g6
F75
tp313
a(g8
F56.100000000000001
tp314
a(g6
F47.200000000000003
tp315
a(g8
F55.600000000000001
tp316
a(g14
F16.699999999999999
tp317
a(g6
F32.700000000000003
tp318
a(g8
F64.299999999999997
tp319
a(g6
F24.300000000000001
tp320
a(g8
F54.100000000000001
tp321
a(g6
F29.399999999999999
tp322
a(g8
F52.899999999999999
tp323
a(g14
F29.399999999999999
tp324
asS'Graceland Park Elementary'
p325
(lp326
(g6
F97.400000000000006
tp327
a(g8
F94.700000000000003
tp328
a(g6
F80
tp329
a(g8
F76.099999999999994
tp330
a(g6
F73.700000000000003
tp331
a(g8
F72.5
tp332
a(g14
F23.100000000000001
tp333
a(g6
F93.299999999999997
tp334
a(g8
F80.599999999999994
tp335
a(g6
F74.200000000000003
tp336
a(g8
F77.400000000000006
tp337
asS'Waverly Elementary'
p338
(lp339
(g6
F62.299999999999997
tp340
a(g8
F71
tp341
a(g6
F76.299999999999997
tp342
a(g8
F79.700000000000003
tp343
a(g6
F61.5
tp344
a(g8
F84.599999999999994
tp345
a(g14
F44.600000000000001
tp346
a(g6
F38.799999999999997
tp347
a(g8
F62.700000000000003
tp348
a(g6
F50
tp349
a(g8
F66.700000000000003
tp350
a(g6
F28.300000000000001
tp351
a(g8
F53.299999999999997
tp352
a(g14
F17.600000000000001
tp353
asS'Arundel Elementary/Middle'
p354
(lp355
(g6
F63.299999999999997
tp356
a(g8
F60
tp357
a(g6
F76.5
tp358
a(g8
F76.5
tp359
a(g6
F65
tp360
a(g8
F65
tp361
a(g14
F25
tp362
a(g6
F38.5
tp363
a(g8
F53.799999999999997
tp364
a(g6
F23.800000000000001
tp365
a(g8
F61.899999999999999
tp366
a(g6
F31
tp367
a(g8
F41.399999999999999
tp368
a(g14
F13.800000000000001
tp369
asS'Woodhome Elementary/Middle'
p370
(lp371
(g6
F77.099999999999994
tp372
a(g8
F68.799999999999997
tp373
a(g6
F91.5
tp374
a(g8
F86.400000000000006
tp375
a(g6
F84.299999999999997
tp376
a(g8
F82.400000000000006
tp377
a(g14
F41.200000000000003
tp378
a(g6
F63.600000000000001
tp379
a(g8
F74.5
tp380
a(g6
F42.399999999999999
tp381
a(g8
F81.400000000000006
tp382
a(g6
F17.600000000000001
tp383
a(g8
F68.599999999999994
tp384
a(g14
F43.100000000000001
tp385
asS'Pimlico Elementary'
p386
(lp387
(g6
F77.900000000000006
tp388
a(g8
F77.900000000000006
tp389
a(g6
F67.200000000000003
tp390
a(g8
F79.700000000000003
tp391
a(g6
F75
tp392
a(g8
F75
tp393
a(g14
F41.399999999999999
tp394
a(g6
F34.299999999999997
tp395
a(g8
F63.200000000000003
tp396
a(g6
F33.700000000000003
tp397
a(g8
F62.399999999999999
tp398
asS'Armistead Gardens Elementary'
p399
(lp400
(g6
F94.400000000000006
tp401
a(g8
F86.099999999999994
tp402
a(g6
F97.400000000000006
tp403
a(g8
F81.599999999999994
tp404
a(g6
F95.599999999999994
tp405
a(g8
F80
tp406
a(g14
F61.399999999999999
tp407
a(g6
F76.700000000000003
tp408
a(g8
F83.700000000000003
tp409
a(g6
F48.299999999999997
tp410
a(g8
F69
tp411
asS'Guilford Elementary/Middle'
p412
(lp413
(g6
F45.5
tp414
a(g8
F63.600000000000001
tp415
a(g6
F96.799999999999997
tp416
a(g8
F96.799999999999997
tp417
a(g6
F35.299999999999997
tp418
a(g8
F61.799999999999997
tp419
a(g14
F17.600000000000001
tp420
a(g6
F61.100000000000001
tp421
a(g8
F77.099999999999994
tp422
a(g6
F60.5
tp423
a(g8
F92.099999999999994
tp424
a(g6
F45
tp425
a(g8
F61.899999999999999
tp426
a(g14
F31.699999999999999
tp427
asS'Patapsco Elementary/Middle'
p428
(lp429
(g6
F56.399999999999999
tp430
a(g8
F38.5
tp431
a(g6
F60
tp432
a(g8
F57.100000000000001
tp433
a(g6
F59.399999999999999
tp434
a(g8
F59.399999999999999
tp435
a(g14
F34.399999999999999
tp436
a(g6
F60
tp437
a(g8
F42.5
tp438
a(g6
F27.699999999999999
tp439
a(g8
F59.600000000000001
tp440
a(g6
F9.8000000000000007
tp441
a(g8
F41.5
tp442
a(g14
F30.800000000000001
tp443
asS'City Springs Elementary'
p444
(lp445
(g6
F40.799999999999997
tp446
a(g8
F56.299999999999997
tp447
a(g6
F31
tp448
a(g8
F65.5
tp449
a(g6
F31
tp450
a(g8
F47.600000000000001
tp451
a(g14
F10
tp452
a(g6
F4.5
tp453
a(g8
F36.399999999999999
tp454
a(g6
F23.300000000000001
tp455
a(g8
F69.799999999999997
tp456
a(g6
F43.200000000000003
tp457
a(g8
F70.299999999999997
tp458
a(g14
F34.299999999999997
tp459
asS'Roland Park Elementary/Middle'
p460
(lp461
(g6
F94.900000000000006
tp462
a(g8
F97.400000000000006
tp463
a(g6
F98.599999999999994
tp464
a(g8
F100
tp465
a(g6
F88.200000000000003
tp466
a(g8
F94.099999999999994
tp467
a(g14
F92
tp468
a(g6
F90.700000000000003
tp469
a(g8
F94.900000000000006
tp470
a(g6
F76.5
tp471
a(g8
F91.700000000000003
tp472
a(g6
F74.799999999999997
tp473
a(g8
F88.700000000000003
tp474
a(g14
F74
tp475
asS'Lakeland Elementary/Middle'
p476
(lp477
(g6
F71.200000000000003
tp478
a(g8
F67.299999999999997
tp479
a(g6
F77.599999999999994
tp480
a(g8
F79.299999999999997
tp481
a(g6
F56.5
tp482
a(g8
F70.200000000000003
tp483
a(g14
F22.399999999999999
tp484
a(g6
F28
tp485
a(g8
F64
tp486
a(g6
F18.300000000000001
tp487
a(g8
F57.299999999999997
tp488
a(g6
F43.299999999999997
tp489
a(g8
F50.700000000000003
tp490
a(g14
F33.799999999999997
tp491
asS'Collington Square Elementary'
p492
(lp493
(g6
F27.699999999999999
tp494
a(g8
F42.399999999999999
tp495
a(g6
F72.299999999999997
tp496
a(g8
F65.299999999999997
tp497
a(g6
F34.100000000000001
tp498
a(g8
F75
tp499
a(g14
F13.6
tp500
a(g6
F54.399999999999999
tp501
a(g8
F71.900000000000006
tp502
a(g6
F46.200000000000003
tp503
a(g8
F75
tp504
a(g6
F17.600000000000001
tp505
a(g8
F41.200000000000003
tp506
a(g14
F18.399999999999999
tp507
asS'Hampden Elementary'
p508
(lp509
(g6
F83.299999999999997
tp510
a(g8
F80
tp511
a(g6
F95.200000000000003
tp512
a(g8
F90.5
tp513
a(g6
F62.100000000000001
tp514
a(g8
F89.700000000000003
tp515
a(g14
F55.200000000000003
tp516
a(g6
F80.599999999999994
tp517
a(g8
F80.599999999999994
tp518
a(g6
F57.5
tp519
a(g8
F80
tp520
asS'North Bend Elementary'
p521
(lp522
(g6
F66.700000000000003
tp523
a(g8
F76.700000000000003
tp524
a(g6
F78
tp525
a(g8
F78
tp526
a(g6
F40
tp527
a(g8
F65.5
tp528
a(g14
F29.600000000000001
tp529
a(g6
F46.5
tp530
a(g8
F83.700000000000003
tp531
a(g6
F35.600000000000001
tp532
a(g8
F66.700000000000003
tp533
asS'Dr. Martin Luther King, Jr. Elementary'
p534
(lp535
(g6
F69.799999999999997
tp536
a(g8
F69.799999999999997
tp537
a(g6
F68.599999999999994
tp538
a(g8
F81.400000000000006
tp539
a(g6
F55.299999999999997
tp540
a(g8
F68.400000000000006
tp541
a(g14
F21.600000000000001
tp542
a(g6
F38.399999999999999
tp543
a(g8
F57.5
tp544
a(g6
F19.300000000000001
tp545
a(g8
F52.299999999999997
tp546
asS'George G. Kelson Elementary'
p547
(lp548
(g6
F54.200000000000003
tp549
a(g8
F62.5
tp550
a(g6
F71.400000000000006
tp551
a(g8
F47.600000000000001
tp552
a(g6
F29.600000000000001
tp553
a(g8
F44.399999999999999
tp554
a(g14
F15.4
tp555
a(g6
F27.800000000000001
tp556
a(g8
F64.900000000000006
tp557
a(g6
F13
tp558
a(g8
F44.399999999999999
tp559
a(g6
F15.4
tp560
a(g8
F35
tp561
a(g14
F17.5
tp562
asS'Bay-Brook Elementary'
p563
(lp564
(g6
F78.099999999999994
tp565
a(g8
F87.299999999999997
tp566
a(g6
F86
tp567
a(g8
F88.200000000000003
tp568
a(g6
F78
tp569
a(g8
F96
tp570
a(g14
F56.299999999999997
tp571
a(g6
F76.099999999999994
tp572
a(g8
F84.799999999999997
tp573
a(g6
F84.599999999999994
tp574
a(g8
F97.400000000000006
tp575
asS'Mount Royal Elementary/Middle'
p576
(lp577
(g6
F86.099999999999994
tp578
a(g8
F70.299999999999997
tp579
a(g6
F85.700000000000003
tp580
a(g8
F84.299999999999997
tp581
a(g6
F86.900000000000006
tp582
a(g8
F80.599999999999994
tp583
a(g14
F35.5
tp584
a(g6
F64.200000000000003
tp585
a(g8
F70.5
tp586
a(g6
F62.299999999999997
tp587
a(g8
F81.900000000000006
tp588
a(g6
F55.600000000000001
tp589
a(g8
F74.5
tp590
a(g14
F54.399999999999999
tp591
asS'KIPP Ujima Village Academy'
p592
(lp593
(g6
F65.400000000000006
tp594
a(g8
F66.400000000000006
tp595
a(g14
F21.5
tp596
a(g6
F92.299999999999997
tp597
a(g8
F85.900000000000006
tp598
a(g6
F88.700000000000003
tp599
a(g8
F91.900000000000006
tp600
a(g6
F96.400000000000006
tp601
a(g8
F85.5
tp602
a(g14
F61.799999999999997
tp603
asS'Cherry Hill Elementary/Middle'
p604
(lp605
(g6
F32.600000000000001
tp606
a(g8
F26.100000000000001
tp607
a(g6
F51.299999999999997
tp608
a(g8
F51.299999999999997
tp609
a(g6
F51.700000000000003
tp610
a(g8
F58.600000000000001
tp611
a(g14
F19.199999999999999
tp612
a(g6
F70
tp613
a(g8
F60
tp614
a(g6
F20.600000000000001
tp615
a(g8
F52.899999999999999
tp616
a(g6
F21.100000000000001
tp617
a(g8
F31.600000000000001
tp618
a(g14
F21.100000000000001
tp619
asS'Cross Country Elementary'
p620
(lp621
(g6
F80.599999999999994
tp622
a(g8
F84.700000000000003
tp623
a(g6
F78.5
tp624
a(g8
F88.599999999999994
tp625
a(g6
F78
tp626
a(g8
F82
tp627
a(g14
F60
tp628
a(g6
F70.299999999999997
tp629
a(g8
F75.700000000000003
tp630
a(g6
F53.399999999999999
tp631
a(g8
F71.200000000000003
tp632
a(g6
F40.600000000000001
tp633
a(g8
F68.799999999999997
tp634
a(g14
F44.399999999999999
tp635
asS'Westport Academy'
p636
(lp637
(g6
F75.700000000000003
tp638
a(g8
F62.200000000000003
tp639
a(g6
F80
tp640
a(g8
F80
tp641
a(g6
F51.100000000000001
tp642
a(g8
F51.100000000000001
tp643
a(g14
F24.399999999999999
tp644
a(g6
F54.799999999999997
tp645
a(g8
F62.5
tp646
a(g6
F16.699999999999999
tp647
a(g8
F42.100000000000001
tp648
a(g6
F22.5
tp649
a(g8
F35
tp650
a(g14
F25
tp651
asS'Calverton'
p652
(lp653
(g6
F61.799999999999997
tp654
a(g8
F67.599999999999994
tp655
a(g6
F73.700000000000003
tp656
a(g8
F71.099999999999994
tp657
a(g6
F42.100000000000001
tp658
a(g8
F72.200000000000003
tp659
a(g14
F22.199999999999999
tp660
a(g6
F24.5
tp661
a(g8
F52.399999999999999
tp662
a(g6
F15.5
tp663
a(g8
F51.100000000000001
tp664
a(g6
F7.0999999999999996
tp665
a(g8
F33.100000000000001
tp666
a(g14
F5.7999999999999998
tp667
asS'Rosemont Elementary'
p668
(lp669
(g6
F83
tp670
a(g8
F79.200000000000003
tp671
a(g6
F89.200000000000003
tp672
a(g8
F91.900000000000006
tp673
a(g6
F83.299999999999997
tp674
a(g8
F95.200000000000003
tp675
a(g14
F65.099999999999994
tp676
a(g6
F93
tp677
a(g8
F100
tp678
a(g6
F80
tp679
a(g8
F87.5
tp680
a(g6
F32.100000000000001
tp681
a(g8
F57.100000000000001
tp682
a(g14
F50
tp683
asS'Barclay Elementary/Middle'
p684
(lp685
(g6
F90
tp686
a(g8
F94
tp687
a(g6
F94.299999999999997
tp688
a(g8
F88.599999999999994
tp689
a(g6
F91.200000000000003
tp690
a(g8
F78.900000000000006
tp691
a(g14
F53.399999999999999
tp692
a(g6
F76.900000000000006
tp693
a(g8
F79.5
tp694
a(g6
F82.5
tp695
a(g8
F87.700000000000003
tp696
a(g6
F75.599999999999994
tp697
a(g8
F73.299999999999997
tp698
a(g14
F55.600000000000001
tp699
asS'Dr. Nathan A. Pitts Ashburton Elementary/Middle'
p700
(lp701
(g6
F65.900000000000006
tp702
a(g8
F73.200000000000003
tp703
a(g6
F77.099999999999994
tp704
a(g8
F70.799999999999997
tp705
a(g6
F43.299999999999997
tp706
a(g8
F88.099999999999994
tp707
a(g14
F50
tp708
a(g6
F64.5
tp709
a(g8
F82.299999999999997
tp710
a(g6
F35.200000000000003
tp711
a(g8
F62
tp712
a(g6
F42.5
tp713
a(g8
F60.899999999999999
tp714
a(g14
F44.200000000000003
tp715
asS'Steuart Hill Academic Academy'
p716
(lp717
sS'Midtown Academy'
p718
(lp719
(g6
F85.700000000000003
tp720
a(g8
F81
tp721
a(g6
F95.200000000000003
tp722
a(g8
F100
tp723
a(g6
F90.5
tp724
a(g8
F90.5
tp725
a(g14
F76.200000000000003
tp726
a(g6
F66.700000000000003
tp727
a(g8
F77.799999999999997
tp728
a(g6
F80
tp729
a(g8
F90
tp730
a(g6
F52.399999999999999
tp731
a(g8
F61.899999999999999
tp732
a(g14
F28.600000000000001
tp733
asS'Hazelwood Elementary/Middle'
p734
(lp735
(g6
F84.400000000000006
tp736
a(g8
F86.400000000000006
tp737
a(g6
F83.599999999999994
tp738
a(g8
F85.200000000000003
tp739
a(g6
F66
tp740
a(g8
F56
tp741
a(g14
F28.600000000000001
tp742
a(g6
F40
tp743
a(g8
F67.799999999999997
tp744
a(g6
F37.799999999999997
tp745
a(g8
F53.700000000000003
tp746
a(g6
F29.199999999999999
tp747
a(g8
F62
tp748
a(g14
F27.100000000000001
tp749
asS'Hamilton Elementary/Middle'
p750
(lp751
(g6
F88.400000000000006
tp752
a(g8
F88.400000000000006
tp753
a(g6
F96.299999999999997
tp754
a(g8
F98.099999999999994
tp755
a(g6
F87.700000000000003
tp756
a(g8
F93
tp757
a(g14
F49.100000000000001
tp758
a(g6
F95.400000000000006
tp759
a(g8
F80.299999999999997
tp760
a(g6
F37.100000000000001
tp761
a(g8
F70.799999999999997
tp762
a(g6
F65.900000000000006
tp763
a(g8
F75.299999999999997
tp764
a(g14
F29.399999999999999
tp765
as.