(dp1
S'Dr. Roland N. Patterson Sr. Academy'
p2
(lp3
(S'math'
p4
F0
tp5
a(S'reading'
p6
F22.199999999999999
tp7
a(g4
F16.100000000000001
tp8
a(g6
F33.100000000000001
tp9
a(S'science'
p10
F6.2000000000000002
tp11
asS'Thurgood Marshall Middle School'
p12
(lp13
(g4
F15.699999999999999
tp14
a(g6
F37.299999999999997
tp15
a(g10
F7.7000000000000002
tp16
asS'Woodbourne Day School'
p17
(lp18
(g4
F0
tp19
a(g6
F45.5
tp20
a(g4
F7.7000000000000002
tp21
a(g6
F23.100000000000001
tp22
a(g4
F15.4
tp23
a(g6
F4.7999999999999998
tp24
a(g10
F7.7000000000000002
tp25
asS'Lombard Middle'
p26
(lp27
(g4
F17.199999999999999
tp28
a(g6
F43.799999999999997
tp29
a(g4
F18.199999999999999
tp30
a(g6
F35.600000000000001
tp31
a(g10
F6.9000000000000004
tp32
asS'Harlem Park Middle'
p33
(lp34
(g4
F31.899999999999999
tp35
a(g6
F39
tp36
a(g10
F19.100000000000001
tp37
asS'Bluford Drew Jemison MST Academy'
p38
(lp39
(g4
F50.899999999999999
tp40
a(g6
F67.900000000000006
tp41
asS'Alternative Learning Center'
p42
(lp43
(g6
F20
tp44
a(g4
F3.6000000000000001
tp45
a(g6
F21.399999999999999
tp46
a(g4
F2.2000000000000002
tp47
a(g6
F18.800000000000001
tp48
a(g10
F2.5
tp49
asS'William H. Lemmel Middle'
p50
(lp51
(g4
F19.600000000000001
tp52
a(g6
F44.799999999999997
tp53
a(g4
F11.4
tp54
a(g6
F44.799999999999997
tp55
a(g4
F9.5999999999999996
tp56
a(g6
F40.299999999999997
tp57
a(g10
F10.4
tp58
asS'Diggs-Johnson Middle'
p59
(lp60
(g4
F21.699999999999999
tp61
a(g6
F41.200000000000003
tp62
a(g4
F10
tp63
a(g6
F43
tp64
a(g4
F11.800000000000001
tp65
a(g6
F31.699999999999999
tp66
a(g10
F12.5
tp67
asS'Northeast Middle'
p68
(lp69
(g4
F21
tp70
a(g6
F55.299999999999997
tp71
a(g4
F22.800000000000001
tp72
a(g6
F60.399999999999999
tp73
a(g4
F24.5
tp74
a(g6
F50.899999999999999
tp75
a(g10
F21.600000000000001
tp76
asS'Canton Middle'
p77
(lp78
(g4
F15
tp79
a(g6
F40.600000000000001
tp80
a(g4
F9.4000000000000004
tp81
a(g6
F30.100000000000001
tp82
a(g10
F12
tp83
asS'West Baltimore Middle'
p84
(lp85
(g4
F23.800000000000001
tp86
a(g6
F48.799999999999997
tp87
a(g4
F11.5
tp88
a(g6
F41.5
tp89
a(g4
F20.800000000000001
tp90
a(g6
F45.600000000000001
tp91
a(g10
F18.300000000000001
tp92
asS'Winston Middle'
p93
(lp94
(g4
F45.399999999999999
tp95
a(g6
F63.200000000000003
tp96
a(g4
F44.5
tp97
a(g6
F66.400000000000006
tp98
a(g4
F28.699999999999999
tp99
a(g6
F54.799999999999997
tp100
a(g10
F19.300000000000001
tp101
asS'Southeast Middle'
p102
(lp103
(g4
F23.699999999999999
tp104
a(g6
F41
tp105
a(g4
F33.299999999999997
tp106
a(g6
F45.899999999999999
tp107
a(g10
F26.399999999999999
tp108
asS'The Crossroads School'
p109
(lp110
(g4
F85.700000000000003
tp111
a(g6
F77.599999999999994
tp112
a(g4
F66
tp113
a(g6
F85.099999999999994
tp114
a(g4
F67.400000000000006
tp115
a(g6
F69.799999999999997
tp116
a(g10
F44.200000000000003
tp117
asS'Paul Laurence Dunbar Middle'
p118
(lp119
(g4
F26.699999999999999
tp120
a(g6
F41.200000000000003
tp121
a(g4
F10.9
tp122
a(g6
F37.200000000000003
tp123
a(g4
F7.0999999999999996
tp124
a(g6
F24.199999999999999
tp125
a(g10
F7.9000000000000004
tp126
asS'Chinquapin Middle'
p127
(lp128
(g4
F29.899999999999999
tp129
a(g6
F59.600000000000001
tp130
a(g4
F21.600000000000001
tp131
a(g6
F59.5
tp132
a(g4
F18.899999999999999
tp133
a(g6
F43.600000000000001
tp134
a(g10
F8.5
tp135
asS'Harford Heights Middle'
p136
(lp137
(g4
F28
tp138
a(g6
F47.5
tp139
a(g4
F17.699999999999999
tp140
a(g6
F48.700000000000003
tp141
asS'Garrison Middle'
p142
(lp143
(g4
F30.399999999999999
tp144
a(g6
F45.200000000000003
tp145
a(g4
F20.699999999999999
tp146
a(g6
F50.700000000000003
tp147
a(g4
F20.5
tp148
a(g6
F40.700000000000003
tp149
a(g10
F12.699999999999999
tp150
asS'MD Academy of Technology and Health Sciences'
p151
(lp152
(g4
F37.200000000000003
tp153
a(g6
F55.100000000000001
tp154
a(g10
F16.699999999999999
tp155
asS'Benjamin Franklin Jr. Middle'
p156
(lp157
(g4
F28.899999999999999
tp158
a(g6
F57.899999999999999
tp159
a(g4
F30.600000000000001
tp160
a(g6
F63.299999999999997
tp161
a(g4
F20.699999999999999
tp162
a(g6
F46.299999999999997
tp163
a(g10
F22.699999999999999
tp164
asS'Hamilton Middle'
p165
(lp166
(g4
F28.800000000000001
tp167
a(g6
F56.600000000000001
tp168
a(g4
F17.899999999999999
tp169
a(g6
F45
tp170
a(g10
F14.4
tp171
asS'Booker T. Washington Middle'
p172
(lp173
(g4
F14.300000000000001
tp174
a(g6
F36.5
tp175
a(g4
F15
tp176
a(g6
F42.5
tp177
a(g4
F10.6
tp178
a(g6
F31.699999999999999
tp179
a(g10
F5.5999999999999996
tp180
asS'Robert Poole Middle'
p181
(lp182
(g4
F17.199999999999999
tp183
a(g6
F44.399999999999999
tp184
a(g10
F23.699999999999999
tp185
as.